target datalayout = "e-m:e-p270:32:32-p271:32:32-p272:64:64-i64:64-i128:128-f80:128-n8:16:32:64-S128"
target triple = "x86_64-pc-linux-gnu"

%struct.tag_ALSA_AudioDeviceDescription = type { i32, i32, ptr, ptr, ptr, ptr, ptr, ptr }
%struct.tag_DirectAudioDeviceDescription = type { i32, i32, [201 x i8], [201 x i8], [201 x i8], [201 x i8] }

; Function Attrs: nounwind uwtable
define hidden i32 @DAUDIO_GetDirectAudioDeviceDescription(i32 noundef %0, ptr noundef %1) #0 {
  %3 = alloca i32, align 4
  %4 = alloca ptr, align 8
  %5 = alloca %struct.tag_ALSA_AudioDeviceDescription, align 8
  store i32 %0, ptr %3, align 4
  store ptr %1, ptr %4, align 8
  %6 = load i32, ptr %3, align 4
  %7 = getelementptr inbounds %struct.tag_ALSA_AudioDeviceDescription, ptr %5, i32 0, i32 0
  store i32 %6, ptr %7, align 8
  %8 = getelementptr inbounds %struct.tag_ALSA_AudioDeviceDescription, ptr %5, i32 0, i32 1
  store i32 200, ptr %8, align 4
  %9 = load ptr, ptr %4, align 8
  %10 = getelementptr inbounds %struct.tag_DirectAudioDeviceDescription, ptr %9, i32 0, i32 1
  %11 = getelementptr inbounds %struct.tag_ALSA_AudioDeviceDescription, ptr %5, i32 0, i32 3
  store ptr %10, ptr %11, align 8
  %12 = load ptr, ptr %4, align 8
  %13 = getelementptr inbounds %struct.tag_DirectAudioDeviceDescription, ptr %12, i32 0, i32 0
  %14 = getelementptr inbounds %struct.tag_ALSA_AudioDeviceDescription, ptr %5, i32 0, i32 2
  store ptr %13, ptr %14, align 8
  %15 = load ptr, ptr %4, align 8
  %16 = getelementptr inbounds %struct.tag_DirectAudioDeviceDescription, ptr %15, i32 0, i32 2
  %17 = getelementptr inbounds [201 x i8], ptr %16, i64 0, i64 0
  %18 = getelementptr inbounds %struct.tag_ALSA_AudioDeviceDescription, ptr %5, i32 0, i32 4
  store ptr %17, ptr %18, align 8
  %19 = load ptr, ptr %4, align 8
  %20 = getelementptr inbounds %struct.tag_DirectAudioDeviceDescription, ptr %19, i32 0, i32 3
  %21 = getelementptr inbounds [201 x i8], ptr %20, i64 0, i64 0
  %22 = getelementptr inbounds %struct.tag_ALSA_AudioDeviceDescription, ptr %5, i32 0, i32 5
  store ptr %21, ptr %22, align 8
  %23 = load ptr, ptr %4, align 8
  %24 = getelementptr inbounds %struct.tag_DirectAudioDeviceDescription, ptr %23, i32 0, i32 4
  %25 = getelementptr inbounds [201 x i8], ptr %24, i64 0, i64 0
  %26 = getelementptr inbounds %struct.tag_ALSA_AudioDeviceDescription, ptr %5, i32 0, i32 6
  store ptr %25, ptr %26, align 8
  %27 = load ptr, ptr %4, align 8
  %28 = getelementptr inbounds %struct.tag_DirectAudioDeviceDescription, ptr %27, i32 0, i32 5
  %29 = getelementptr inbounds [201 x i8], ptr %28, i64 0, i64 0
  %30 = getelementptr inbounds %struct.tag_ALSA_AudioDeviceDescription, ptr %5, i32 0, i32 7
  store ptr %29, ptr %30, align 8
  %31 = call i32 @getAudioDeviceDescriptionByIndex(ptr noundef %5)
  ret i32 %31
}