; Function Attrs: nounwind uwtable
define hidden i32 @DAUDIO_GetDirectAudioDeviceDescription(i32 noundef %0, ptr noundef %1) local_unnamed_addr #0 {
  %3 = alloca %struct.tag_ALSA_AudioDeviceDescription, align 8
  store i32 %0, ptr %3, align 8
  %4 = getelementptr inbounds i8, ptr %3, i64 4
  store i32 200, ptr %4, align 4
  %5 = getelementptr inbounds i8, ptr %1, i64 4
  %6 = getelementptr inbounds i8, ptr %3, i64 16
  store ptr %5, ptr %6, align 8
  %7 = getelementptr inbounds i8, ptr %3, i64 8
  store ptr %1, ptr %7, align 8
  %8 = getelementptr inbounds i8, ptr %1, i64 8
  %9 = getelementptr inbounds i8, ptr %3, i64 24
  store ptr %8, ptr %9, align 8
  %10 = getelementptr inbounds i8, ptr %1, i64 209
  %11 = getelementptr inbounds i8, ptr %3, i64 32
  store ptr %10, ptr %11, align 8
  %12 = getelementptr inbounds i8, ptr %1, i64 410
  %13 = getelementptr inbounds i8, ptr %3, i64 40
  store ptr %12, ptr %13, align 8
  %14 = getelementptr inbounds i8, ptr %1, i64 611
  %15 = getelementptr inbounds i8, ptr %3, i64 48
  store ptr %14, ptr %15, align 8
  %16 = call i32 @getAudioDeviceDescriptionByIndex(ptr noundef nonnull %3) #8
  ret i32 %16
}